; ModuleID = '31/376.c'
source_filename = "31/376.c"
target datalayout = "e-m:e-p270:32:32-p271:32:32-p272:64:64-i64:64-f80:128-n8:16:32:64-S128"
target triple = "x86_64-pc-linux-gnu"

%struct.Student = type { [100 x i8], [100 x i8], i8, i32, [20 x i8], [100 x i8], %struct.Student*, %struct.Student* }

@n = common dso_local global i32 0, align 4
@.str = private unnamed_addr constant [15 x i8] c"%s %s %c%d%s%s\00", align 1
@.str.1 = private unnamed_addr constant [19 x i8] c"%s %s %c %d %s %s\0A\00", align 1

; Function Attrs: noinline nounwind uwtable
define dso_local void @main() #0 {
  %1 = alloca %struct.Student*, align 8
  %2 = alloca %struct.Student*, align 8
  store i32 0, i32* @n, align 4
  %3 = call noalias i8* @malloc(i64 100) #3
  %4 = bitcast i8* %3 to %struct.Student*
  store %struct.Student* %4, %struct.Student** %2, align 8
  store %struct.Student* %4, %struct.Student** %1, align 8
  %5 = load %struct.Student*, %struct.Student** %1, align 8
  %6 = getelementptr inbounds %struct.Student, %struct.Student* %5, i32 0, i32 0
  %7 = load %struct.Student*, %struct.Student** %1, align 8
  %8 = getelementptr inbounds %struct.Student, %struct.Student* %7, i32 0, i32 1
  %9 = load %struct.Student*, %struct.Student** %1, align 8
  %10 = getelementptr inbounds %struct.Student, %struct.Student* %9, i32 0, i32 2
  %11 = load %struct.Student*, %struct.Student** %1, align 8
  %12 = getelementptr inbounds %struct.Student, %struct.Student* %11, i32 0, i32 3
  %13 = load %struct.Student*, %struct.Student** %1, align 8
  %14 = getelementptr inbounds %struct.Student, %struct.Student* %13, i32 0, i32 4
  %15 = load %struct.Student*, %struct.Student** %1, align 8
  %16 = getelementptr inbounds %struct.Student, %struct.Student* %15, i32 0, i32 5
  %17 = call i32 (i8*, ...) @__isoc99_scanf(i8* getelementptr inbounds ([15 x i8], [15 x i8]* @.str, i64 0, i64 0), [100 x i8]* %6, [100 x i8]* %8, i8* %10, i32* %12, [20 x i8]* %14, [100 x i8]* %16)
  %18 = load %struct.Student*, %struct.Student** %1, align 8
  %19 = getelementptr inbounds %struct.Student, %struct.Student* %18, i32 0, i32 7
  store %struct.Student* null, %struct.Student** %19, align 8
  br label %20

20:                                               ; preds = %43, %0
  %21 = load %struct.Student*, %struct.Student** %1, align 8
  %22 = getelementptr inbounds %struct.Student, %struct.Student* %21, i32 0, i32 0
  %23 = getelementptr inbounds [100 x i8], [100 x i8]* %22, i64 0, i64 0
  %24 = load i8, i8* %23, align 8
  %25 = sext i8 %24 to i32
  %26 = icmp ne i32 %25, 101
  br i1 %26, label %41, label %27

27:                                               ; preds = %20
  %28 = load %struct.Student*, %struct.Student** %1, align 8
  %29 = getelementptr inbounds %struct.Student, %struct.Student* %28, i32 0, i32 0
  %30 = getelementptr inbounds [100 x i8], [100 x i8]* %29, i64 0, i64 1
  %31 = load i8, i8* %30, align 1
  %32 = sext i8 %31 to i32
  %33 = icmp ne i32 %32, 110
  br i1 %33, label %41, label %34

34:                                               ; preds = %27
  %35 = load %struct.Student*, %struct.Student** %1, align 8
  %36 = getelementptr inbounds %struct.Student, %struct.Student* %35, i32 0, i32 0
  %37 = getelementptr inbounds [100 x i8], [100 x i8]* %36, i64 0, i64 2
  %38 = load i8, i8* %37, align 2
  %39 = sext i8 %38 to i32
  %40 = icmp ne i32 %39, 100
  br label %41

41:                                               ; preds = %34, %27, %20
  %42 = phi i1 [ true, %27 ], [ true, %20 ], [ %40, %34 ]
  br i1 %42, label %43, label %68

43:                                               ; preds = %41
  %44 = load i32, i32* @n, align 4
  %45 = add nsw i32 %44, 1
  store i32 %45, i32* @n, align 4
  %46 = load %struct.Student*, %struct.Student** %1, align 8
  %47 = load %struct.Student*, %struct.Student** %2, align 8
  %48 = getelementptr inbounds %struct.Student, %struct.Student* %47, i32 0, i32 6
  store %struct.Student* %46, %struct.Student** %48, align 8
  %49 = load %struct.Student*, %struct.Student** %1, align 8
  store %struct.Student* %49, %struct.Student** %2, align 8
  %50 = call noalias i8* @malloc(i64 100) #3
  %51 = bitcast i8* %50 to %struct.Student*
  store %struct.Student* %51, %struct.Student** %1, align 8
  %52 = load %struct.Student*, %struct.Student** %1, align 8
  %53 = getelementptr inbounds %struct.Student, %struct.Student* %52, i32 0, i32 0
  %54 = load %struct.Student*, %struct.Student** %1, align 8
  %55 = getelementptr inbounds %struct.Student, %struct.Student* %54, i32 0, i32 1
  %56 = load %struct.Student*, %struct.Student** %1, align 8
  %57 = getelementptr inbounds %struct.Student, %struct.Student* %56, i32 0, i32 2
  %58 = load %struct.Student*, %struct.Student** %1, align 8
  %59 = getelementptr inbounds %struct.Student, %struct.Student* %58, i32 0, i32 3
  %60 = load %struct.Student*, %struct.Student** %1, align 8
  %61 = getelementptr inbounds %struct.Student, %struct.Student* %60, i32 0, i32 4
  %62 = load %struct.Student*, %struct.Student** %1, align 8
  %63 = getelementptr inbounds %struct.Student, %struct.Student* %62, i32 0, i32 5
  %64 = call i32 (i8*, ...) @__isoc99_scanf(i8* getelementptr inbounds ([15 x i8], [15 x i8]* @.str, i64 0, i64 0), [100 x i8]* %53, [100 x i8]* %55, i8* %57, i32* %59, [20 x i8]* %61, [100 x i8]* %63)
  %65 = load %struct.Student*, %struct.Student** %2, align 8
  %66 = load %struct.Student*, %struct.Student** %1, align 8
  %67 = getelementptr inbounds %struct.Student, %struct.Student* %66, i32 0, i32 7
  store %struct.Student* %65, %struct.Student** %67, align 8
  br label %20

68:                                               ; preds = %41
  %69 = load %struct.Student*, %struct.Student** %2, align 8
  %70 = getelementptr inbounds %struct.Student, %struct.Student* %69, i32 0, i32 6
  store %struct.Student* null, %struct.Student** %70, align 8
  br label %71

71:                                               ; preds = %74, %68
  %72 = load %struct.Student*, %struct.Student** %2, align 8
  %73 = icmp ne %struct.Student* %72, null
  br i1 %73, label %74, label %98

74:                                               ; preds = %71
  %75 = load %struct.Student*, %struct.Student** %2, align 8
  %76 = getelementptr inbounds %struct.Student, %struct.Student* %75, i32 0, i32 0
  %77 = getelementptr inbounds [100 x i8], [100 x i8]* %76, i64 0, i64 0
  %78 = load %struct.Student*, %struct.Student** %2, align 8
  %79 = getelementptr inbounds %struct.Student, %struct.Student* %78, i32 0, i32 1
  %80 = getelementptr inbounds [100 x i8], [100 x i8]* %79, i64 0, i64 0
  %81 = load %struct.Student*, %struct.Student** %2, align 8
  %82 = getelementptr inbounds %struct.Student, %struct.Student* %81, i32 0, i32 2
  %83 = load i8, i8* %82, align 8
  %84 = sext i8 %83 to i32
  %85 = load %struct.Student*, %struct.Student** %2, align 8
  %86 = getelementptr inbounds %struct.Student, %struct.Student* %85, i32 0, i32 3
  %87 = load i32, i32* %86, align 4
  %88 = load %struct.Student*, %struct.Student** %2, align 8
  %89 = getelementptr inbounds %struct.Student, %struct.Student* %88, i32 0, i32 4
  %90 = getelementptr inbounds [20 x i8], [20 x i8]* %89, i64 0, i64 0
  %91 = load %struct.Student*, %struct.Student** %2, align 8
  %92 = getelementptr inbounds %struct.Student, %struct.Student* %91, i32 0, i32 5
  %93 = getelementptr inbounds [100 x i8], [100 x i8]* %92, i64 0, i64 0
  %94 = call i32 (i8*, ...) @printf(i8* getelementptr inbounds ([19 x i8], [19 x i8]* @.str.1, i64 0, i64 0), i8* %77, i8* %80, i32 %84, i32 %87, i8* %90, i8* %93)
  %95 = load %struct.Student*, %struct.Student** %2, align 8
  %96 = getelementptr inbounds %struct.Student, %struct.Student* %95, i32 0, i32 7
  %97 = load %struct.Student*, %struct.Student** %96, align 8
  store %struct.Student* %97, %struct.Student** %2, align 8
  br label %71

98:                                               ; preds = %71
  ret void
}

; Function Attrs: nounwind
declare dso_local noalias i8* @malloc(i64) #1

declare dso_local i32 @__isoc99_scanf(i8*, ...) #2

declare dso_local i32 @printf(i8*, ...) #2


!llvm.module.flags = !{!0}
!llvm.ident = !{!1}

!0 = !{i32 1, !"wchar_size", i32 4}
!1 = !{!"clang version 10.0.0-4ubuntu1 "}
